; Function Attrs: mustprogress nofree norecurse nosync nounwind willreturn memory(read, argmem: readwrite, inaccessiblemem: none) uwtable
define noundef i32 @_ZN4pkpy5Frame11_exit_blockEPNS_10ValueStackEi(ptr noundef nonnull readonly align 8 captures(none) dereferenceable(56) %0, ptr noundef captures(none) %1, i32 noundef %2) local_unnamed_addr #8 align 2 {
  %4 = getelementptr inbounds nuw i8, ptr %0, i64 16
  %5 = load ptr, ptr %4, align 8
  %6 = getelementptr inbounds nuw i8, ptr %5, i64 304
  %7 = sext i32 %2 to i64
  %8 = load ptr, ptr %6, align 8
  %9 = getelementptr inbounds %"struct.pkpy::CodeBlock", ptr %8, i64 %7
  %10 = load i32, ptr %9, align 4
  %11 = and i32 %10, -3
  %or.cond = icmp eq i32 %11, 1
  br i1 %or.cond, label %12, label %16

12:                                               ; preds = %3
  %13 = getelementptr inbounds nuw i8, ptr %1, i64 264192
  %14 = load ptr, ptr %13, align 8
  %15 = getelementptr inbounds i8, ptr %14, i64 -8
  store ptr %15, ptr %13, align 8
  %.pre = load ptr, ptr %4, align 8
  %.phi.trans.insert = getelementptr inbounds nuw i8, ptr %.pre, i64 304
  %.pre6 = load ptr, ptr %.phi.trans.insert, align 8
  br label %16

16:                                               ; preds = %3, %12
  %17 = phi ptr [ %8, %3 ], [ %.pre6, %12 ]
  %18 = getelementptr inbounds %"struct.pkpy::CodeBlock", ptr %17, i64 %7, i32 1
  %19 = load i32, ptr %18, align 4
  ret i32 %19
}